; Function Attrs: mustprogress uwtable
define internal fastcc noundef zeroext i1 @_ZN7tinyobjL8fixIndexEiiPibRKNS_15warning_contextE(i32 noundef %idx, i32 noundef %n, ptr noundef writeonly %ret, i1 noundef zeroext %allow_zero, ptr nocapture noundef nonnull readonly align 8 dereferenceable(16) %context) unnamed_addr #3 personality ptr @__gxx_personality_v0 {
entry:
  %ss.i = alloca %"class.std::__cxx11::basic_stringstream", align 8
  %ref.tmp = alloca %"class.std::__cxx11::basic_string", align 8
  %ref.tmp7 = alloca %"class.std::__cxx11::basic_string", align 8
  %ref.tmp8 = alloca %"class.std::__cxx11::basic_string", align 8
  %tobool.not = icmp eq ptr %ret, null
  br i1 %tobool.not, label %return, label %if.end

if.end:                                           ; preds = %entry
  %cmp = icmp sgt i32 %idx, 0
  br i1 %cmp, label %if.then1, label %if.end2

if.then1:                                         ; preds = %if.end
  %sub = add nsw i32 %idx, -1
  store i32 %sub, ptr %ret, align 4
  br label %return

if.end2:                                          ; preds = %if.end
  %cmp3 = icmp eq i32 %idx, 0
  br i1 %cmp3, label %if.then4, label %if.then20

if.then4:                                         ; preds = %if.end2
  %0 = load ptr, ptr %context, align 8
  %tobool5.not = icmp eq ptr %0, null
  br i1 %tobool5.not, label %if.end15, label %if.then6

if.then6:                                         ; preds = %if.then4
  %line_number = getelementptr inbounds i8, ptr %context, i64 8
  call void @llvm.lifetime.start.p0(i64 392, ptr nonnull %ss.i)
  call void @_ZNSt7__cxx1118basic_stringstreamIcSt11char_traitsIcESaIcEEC1Ev(ptr noundef nonnull align 8 dereferenceable(128) %ss.i), !noalias !79
  %add.ptr.i = getelementptr inbounds i8, ptr %ss.i, i64 16
  %1 = load i64, ptr %line_number, align 8, !noalias !79
  %call.i = invoke noundef nonnull align 8 dereferenceable(8) ptr @_ZNSolsEm(ptr noundef nonnull align 8 dereferenceable(8) %add.ptr.i, i64 noundef %1)
          to label %invoke.cont.i unwind label %lpad.i, !noalias !79

invoke.cont.i:                                    ; preds = %if.then6
  invoke void @_ZNKSt7__cxx1118basic_stringstreamIcSt11char_traitsIcESaIcEE3strEv(ptr nonnull sret(%"class.std::__cxx11::basic_string") align 8 %ref.tmp8, ptr noundef nonnull align 8 dereferenceable(128) %ss.i)
          to label %_ZN7tinyobjL8toStringImEENSt7__cxx1112basic_stringIcSt11char_traitsIcESaIcEEERKT_.exit unwind label %lpad.i

common.resume:                                    ; preds = %ehcleanup14, %lpad.i
  %common.resume.op = phi { ptr, i32 } [ %2, %lpad.i ], [ %.pn.pn, %ehcleanup14 ]
  resume { ptr, i32 } %common.resume.op

lpad.i:                                           ; preds = %invoke.cont.i, %if.then6
  %2 = landingpad { ptr, i32 }
          cleanup
  call void @_ZNSt7__cxx1118basic_stringstreamIcSt11char_traitsIcESaIcEED1Ev(ptr noundef nonnull align 8 dereferenceable(128) %ss.i) #24
  br label %common.resume

_ZN7tinyobjL8toStringImEENSt7__cxx1112basic_stringIcSt11char_traitsIcESaIcEEERKT_.exit: ; preds = %invoke.cont.i
  call void @_ZNSt7__cxx1118basic_stringstreamIcSt11char_traitsIcESaIcEED1Ev(ptr noundef nonnull align 8 dereferenceable(128) %ss.i) #24
  call void @llvm.lifetime.end.p0(i64 392, ptr nonnull %ss.i)
  %call.i1415 = invoke noundef nonnull align 8 dereferenceable(32) ptr @_ZNSt7__cxx1112basic_stringIcSt11char_traitsIcESaIcEE6insertEmPKc(ptr noundef nonnull align 8 dereferenceable(32) %ref.tmp8, i64 noundef 0, ptr noundef nonnull @.str.81)
          to label %invoke.cont unwind label %lpad

invoke.cont:                                      ; preds = %_ZN7tinyobjL8toStringImEENSt7__cxx1112basic_stringIcSt11char_traitsIcESaIcEEERKT_.exit
  call void @_ZNSt7__cxx1112basic_stringIcSt11char_traitsIcESaIcEEC1EOS4_(ptr noundef nonnull align 8 dereferenceable(32) %ref.tmp7, ptr noundef nonnull align 8 dereferenceable(32) %call.i1415) #24
  %call.i1617 = invoke noundef nonnull align 8 dereferenceable(32) ptr @_ZNSt7__cxx1112basic_stringIcSt11char_traitsIcESaIcEE6appendEPKc(ptr noundef nonnull align 8 dereferenceable(32) %ref.tmp7, ptr noundef nonnull @.str.51)
          to label %invoke.cont10 unwind label %lpad9

invoke.cont10:                                    ; preds = %invoke.cont
  call void @_ZNSt7__cxx1112basic_stringIcSt11char_traitsIcESaIcEEC1EOS4_(ptr noundef nonnull align 8 dereferenceable(32) %ref.tmp, ptr noundef nonnull align 8 dereferenceable(32) %call.i1617) #24
  %3 = load ptr, ptr %context, align 8
  %call = invoke noundef nonnull align 8 dereferenceable(32) ptr @_ZNSt7__cxx1112basic_stringIcSt11char_traitsIcESaIcEEpLERKS4_(ptr noundef nonnull align 8 dereferenceable(32) %3, ptr noundef nonnull align 8 dereferenceable(32) %ref.tmp)
          to label %invoke.cont13 unwind label %lpad12

invoke.cont13:                                    ; preds = %invoke.cont10
  call void @_ZNSt7__cxx1112basic_stringIcSt11char_traitsIcESaIcEED1Ev(ptr noundef nonnull align 8 dereferenceable(32) %ref.tmp) #24
  call void @_ZNSt7__cxx1112basic_stringIcSt11char_traitsIcESaIcEED1Ev(ptr noundef nonnull align 8 dereferenceable(32) %ref.tmp7) #24
  call void @_ZNSt7__cxx1112basic_stringIcSt11char_traitsIcESaIcEED1Ev(ptr noundef nonnull align 8 dereferenceable(32) %ref.tmp8) #24
  br label %if.end15

lpad:                                             ; preds = %_ZN7tinyobjL8toStringImEENSt7__cxx1112basic_stringIcSt11char_traitsIcESaIcEEERKT_.exit
  %4 = landingpad { ptr, i32 }
          cleanup
  br label %ehcleanup14

lpad9:                                            ; preds = %invoke.cont
  %5 = landingpad { ptr, i32 }
          cleanup
  br label %ehcleanup

lpad12:                                           ; preds = %invoke.cont10
  %6 = landingpad { ptr, i32 }
          cleanup
  call void @_ZNSt7__cxx1112basic_stringIcSt11char_traitsIcESaIcEED1Ev(ptr noundef nonnull align 8 dereferenceable(32) %ref.tmp) #24
  br label %ehcleanup

ehcleanup:                                        ; preds = %lpad12, %lpad9
  %.pn = phi { ptr, i32 } [ %6, %lpad12 ], [ %5, %lpad9 ]
  call void @_ZNSt7__cxx1112basic_stringIcSt11char_traitsIcESaIcEED1Ev(ptr noundef nonnull align 8 dereferenceable(32) %ref.tmp7) #24
  br label %ehcleanup14

ehcleanup14:                                      ; preds = %ehcleanup, %lpad
  %.pn.pn = phi { ptr, i32 } [ %.pn, %ehcleanup ], [ %4, %lpad ]
  call void @_ZNSt7__cxx1112basic_stringIcSt11char_traitsIcESaIcEED1Ev(ptr noundef nonnull align 8 dereferenceable(32) %ref.tmp8) #24
  br label %common.resume

if.end15:                                         ; preds = %invoke.cont13, %if.then4
  store i32 -1, ptr %ret, align 4
  br label %return

if.then20:                                        ; preds = %if.end2
  %add = add nsw i32 %n, %idx
  store i32 %add, ptr %ret, align 4
  %cmp21 = icmp sgt i32 %add, -1
  br label %return

return:                                           ; preds = %if.then20, %entry, %if.end15, %if.then1
  %retval.0 = phi i1 [ true, %if.then1 ], [ %allow_zero, %if.end15 ], [ false, %entry ], [ %cmp21, %if.then20 ]
  ret i1 %retval.0
}